target datalayout = "e-m:e-p270:32:32-p271:32:32-p272:64:64-i64:64-i128:128-f80:128-n8:16:32:64-S128"
target triple = "x86_64-pc-linux-gnu"

; Function Attrs: nounwind uwtable
define ptr @l_Lean_RBNode_insert___at_Lake_LeanExe_initFacetConfigs___spec__1(ptr noundef %0, ptr noundef %1, ptr noundef %2) #2 {
  %4 = alloca ptr, align 8
  %5 = alloca ptr, align 8
  %6 = alloca ptr, align 8
  %7 = alloca ptr, align 8
  %8 = alloca i8, align 1
  %9 = alloca ptr, align 8
  %10 = alloca i32, align 4
  %11 = alloca ptr, align 8
  %12 = alloca ptr, align 8
  store ptr %0, ptr %5, align 8, !tbaa !8
  store ptr %1, ptr %6, align 8, !tbaa !8
  store ptr %2, ptr %7, align 8, !tbaa !8
  br label %13

13:                                               ; preds = %3
  call void @llvm.lifetime.start.p0(i64 1, ptr %8) #7
  %14 = load ptr, ptr %5, align 8, !tbaa !8
  %15 = call zeroext i8 @l_Lean_RBNode_isRed___rarg(ptr noundef %14)
  store i8 %15, ptr %8, align 1, !tbaa !10
  %16 = load i8, ptr %8, align 1, !tbaa !10
  %17 = zext i8 %16 to i32
  %18 = icmp eq i32 %17, 0
  br i1 %18, label %19, label %25

19:                                               ; preds = %13
  call void @llvm.lifetime.start.p0(i64 8, ptr %9) #7
  %20 = load ptr, ptr %5, align 8, !tbaa !8
  %21 = load ptr, ptr %6, align 8, !tbaa !8
  %22 = load ptr, ptr %7, align 8, !tbaa !8
  %23 = call ptr @l_Lean_RBNode_ins___at_Lake_LeanExe_initFacetConfigs___spec__2(ptr noundef %20, ptr noundef %21, ptr noundef %22)
  store ptr %23, ptr %9, align 8, !tbaa !8
  %24 = load ptr, ptr %9, align 8, !tbaa !8
  store ptr %24, ptr %4, align 8
  store i32 1, ptr %10, align 4
  call void @llvm.lifetime.end.p0(i64 8, ptr %9) #7
  br label %33

25:                                               ; preds = %13
  call void @llvm.lifetime.start.p0(i64 8, ptr %11) #7
  call void @llvm.lifetime.start.p0(i64 8, ptr %12) #7
  %26 = load ptr, ptr %5, align 8, !tbaa !8
  %27 = load ptr, ptr %6, align 8, !tbaa !8
  %28 = load ptr, ptr %7, align 8, !tbaa !8
  %29 = call ptr @l_Lean_RBNode_ins___at_Lake_LeanExe_initFacetConfigs___spec__2(ptr noundef %26, ptr noundef %27, ptr noundef %28)
  store ptr %29, ptr %11, align 8, !tbaa !8
  %30 = load ptr, ptr %11, align 8, !tbaa !8
  %31 = call ptr @l_Lean_RBNode_setBlack___rarg(ptr noundef %30)
  store ptr %31, ptr %12, align 8, !tbaa !8
  %32 = load ptr, ptr %12, align 8, !tbaa !8
  store ptr %32, ptr %4, align 8
  store i32 1, ptr %10, align 4
  call void @llvm.lifetime.end.p0(i64 8, ptr %12) #7
  call void @llvm.lifetime.end.p0(i64 8, ptr %11) #7
  br label %33

33:                                               ; preds = %25, %19
  call void @llvm.lifetime.end.p0(i64 1, ptr %8) #7
  %34 = load ptr, ptr %4, align 8
  ret ptr %34
}